(c__builtin__
set
p0
((lp1
ccopy_reg
_reconstructor
p2
(ccommon
RegOutput
p3
cdill.dill
_load_type
p4
(S'ObjectType'
p5
tp6
Rp7
Ntp8
Rp9
(dp10
S'interest_bits'
p11
NsS'use_reg'
p12
cisa.x86_registers
X86_MEM_READ1
p13
sS'change_mask'
p14
I255
sS'fix_value'
p15
L127L
sS'def_reg'
p16
cisa.x86_registers
X86_REG_EBP
p17
sS'use_val_str'
p18
S'{:08b}'
p19
sS'def_val_str'
p20
S'{:032b}'
p21
sS'def_mask'
p22
L255L
sS'condition'
p23
I01
sS'use_mask2'
p24
(lp25
L1L
aL2L
aL4L
aL8L
aL16L
aL32L
aL64L
aL128L
asbatp26
Rp27
(lp28
tp29
.